; Function Attrs: mustprogress nofree norecurse nosync nounwind willreturn memory(argmem: readwrite) uwtable
define internal fastcc zeroext i1 @_validate_time_limit(ptr noundef captures(none) %0, i32 noundef %1, i64 noundef %2, i64 noundef %3, ptr noundef captures(none) %4, ptr noundef captures(address_is_null) %5, i1 noundef zeroext %6, i1 noundef zeroext %7) unnamed_addr #12 {
  %9 = load i64, ptr %4, align 8
  %.not = icmp eq i64 %2, 0
  br i1 %.not, label %44, label %10

10:                                               ; preds = %8
  %11 = load i32, ptr %0, align 4
  %.not36 = icmp eq i32 %11, -2
  br i1 %.not36, label %16, label %12

12:                                               ; preds = %10
  br i1 %6, label %13, label %44

13:                                               ; preds = %12
  %14 = load i16, ptr %5, align 2
  %15 = icmp eq i16 %14, -1
  br i1 %15, label %44, label %16

16:                                               ; preds = %13, %10
  br i1 %7, label %17, label %21

17:                                               ; preds = %16
  %18 = icmp ne i64 %9, -1
  %19 = icmp eq i64 %3, -1
  %or.cond = or i1 %19, %18
  %20 = icmp eq i64 %2, -2
  %or.cond3 = or i1 %20, %or.cond
  br i1 %or.cond3, label %44, label %28

21:                                               ; preds = %16
  %22 = and i64 %9, 4294967295
  %23 = icmp ne i64 %22, 4294967295
  %24 = and i64 %3, 4294967295
  %25 = icmp eq i64 %24, 4294967295
  %or.cond6 = or i1 %25, %23
  %26 = and i64 %2, 4294967295
  %27 = icmp eq i64 %26, 4294967294
  %or.cond9 = or i1 %27, %or.cond6
  br i1 %or.cond9, label %44, label %28

28:                                               ; preds = %21, %17
  %29 = udiv i64 %3, %2
  %30 = trunc i64 %29 to i32
  br i1 %.not36, label %31, label %33

31:                                               ; preds = %28
  %.not20.i = icmp eq i32 %30, 0
  %.sink.i = select i1 %.not20.i, i32 %1, i32 %30
  store i32 %.sink.i, ptr %0, align 4
  %.not22.i = icmp eq ptr %5, null
  br i1 %.not22.i, label %_set_time_limit.exit, label %32

32:                                               ; preds = %31
  store i16 1, ptr %5, align 2
  br label %_set_time_limit.exit

33:                                               ; preds = %28
  %.not.i = icmp eq ptr %5, null
  br i1 %.not.i, label %_set_time_limit.exit, label %34

34:                                               ; preds = %33
  %35 = load i16, ptr %5, align 2
  %.not19.i = icmp ne i16 %35, 0
  %36 = icmp ugt i32 %11, %30
  %or.cond.i = and i1 %36, %.not19.i
  br i1 %or.cond.i, label %37, label %_set_time_limit.exit

37:                                               ; preds = %34
  store i32 %30, ptr %0, align 4
  br label %_set_time_limit.exit

_set_time_limit.exit:                             ; preds = %31, %32, %33, %34, %37
  br i1 %7, label %38, label %39

38:                                               ; preds = %_set_time_limit.exit
  store i64 %3, ptr %4, align 8
  br label %41

39:                                               ; preds = %_set_time_limit.exit
  %40 = trunc i64 %3 to i32
  store i32 %40, ptr %4, align 4
  br label %41

41:                                               ; preds = %39, %38
  %42 = load i32, ptr %0, align 4
  %43 = icmp ule i32 %42, %30
  br label %44

44:                                               ; preds = %41, %21, %17, %8, %12, %13
  %.0 = phi i1 [ true, %13 ], [ true, %12 ], [ true, %8 ], [ true, %17 ], [ true, %21 ], [ %43, %41 ]
  ret i1 %.0
}